target datalayout = "e-m:e-p270:32:32-p271:32:32-p272:64:64-i64:64-i128:128-f80:128-n8:16:32:64-S128"
target triple = "x86_64-unknown-linux-gnu"

%"class.arrow::Status" = type { ptr }
%"struct.arrow::ArraySpan" = type { ptr, i64, i64, i64, [3 x %"struct.arrow::BufferSpan"], %"class.std::vector.5" }
%"struct.arrow::BufferSpan" = type { ptr, i64, ptr }
%"class.std::vector.5" = type { %"struct.std::_Vector_base.6" }
%"struct.std::_Vector_base.6" = type { %"struct.std::_Vector_base<arrow::ArraySpan, std::allocator<arrow::ArraySpan>>::_Vector_impl" }
%"struct.std::_Vector_base<arrow::ArraySpan, std::allocator<arrow::ArraySpan>>::_Vector_impl" = type { %"struct.std::_Vector_base<arrow::ArraySpan, std::allocator<arrow::ArraySpan>>::_Vector_impl_data" }
%"struct.std::_Vector_base<arrow::ArraySpan, std::allocator<arrow::ArraySpan>>::_Vector_impl_data" = type { ptr, ptr, ptr }
%"class.arrow::DataType" = type { %"class.arrow::detail::Fingerprintable", %"class.std::enable_shared_from_this", i32, %"class.std::vector" }
%"class.arrow::detail::Fingerprintable" = type { ptr, %"struct.std::atomic", %"struct.std::atomic" }
%"struct.std::atomic" = type { %"struct.std::__atomic_base" }
%"struct.std::__atomic_base" = type { ptr }
%"class.std::enable_shared_from_this" = type { %"class.std::weak_ptr" }
%"class.std::weak_ptr" = type { %"class.std::__weak_ptr" }
%"class.std::__weak_ptr" = type { ptr, %"class.std::__weak_count" }
%"class.std::__weak_count" = type { ptr }
%"class.std::vector" = type { %"struct.std::_Vector_base" }
%"struct.std::_Vector_base" = type { %"struct.std::_Vector_base<std::shared_ptr<arrow::Field>, std::allocator<std::shared_ptr<arrow::Field>>>::_Vector_impl" }
%"struct.std::_Vector_base<std::shared_ptr<arrow::Field>, std::allocator<std::shared_ptr<arrow::Field>>>::_Vector_impl" = type { %"struct.std::_Vector_base<std::shared_ptr<arrow::Field>, std::allocator<std::shared_ptr<arrow::Field>>>::_Vector_impl_data" }
%"struct.std::_Vector_base<std::shared_ptr<arrow::Field>, std::allocator<std::shared_ptr<arrow::Field>>>::_Vector_impl_data" = type { ptr, ptr, ptr }
%"struct.arrow::Scalar" = type <{ ptr, %"class.std::enable_shared_from_this.10", %"class.std::shared_ptr", i8, [7 x i8] }>
%"class.std::enable_shared_from_this.10" = type { %"class.std::weak_ptr.11" }
%"class.std::weak_ptr.11" = type { %"class.std::__weak_ptr.12" }
%"class.std::__weak_ptr.12" = type { ptr, %"class.std::__weak_count" }
%"class.std::shared_ptr" = type { %"class.std::__shared_ptr" }
%"class.std::__shared_ptr" = type { ptr, %"class.std::__shared_count" }
%"class.std::__shared_count" = type { ptr }

@.str = private unnamed_addr constant [38 x i8] c"Invalid index type for boundschecking\00", align 1
@.str.1 = private unnamed_addr constant [58 x i8] c"Scalar bound types must be non-null and same type as data\00", align 1

; Function Attrs: mustprogress nounwind uwtable
define linkonce_odr noundef ptr @_ZNKSt12__shared_ptrIN5arrow8DataTypeELN9__gnu_cxx12_Lock_policyE2EE3getEv(ptr noundef nonnull align 8 dereferenceable(16) %this) #0 comdat align 2 {
entry:
  %this.addr = alloca ptr, align 8
  store ptr %this, ptr %this.addr, align 8
  %this1 = load ptr, ptr %this.addr, align 8
  %_M_ptr = getelementptr inbounds %"class.std::__shared_ptr", ptr %this1, i32 0, i32 0
  %0 = load ptr, ptr %_M_ptr, align 8
  ret ptr %0
}

; Function Attrs: mustprogress nounwind uwtable
define linkonce_odr noundef ptr @_ZNKSt19__shared_ptr_accessIN5arrow8DataTypeELN9__gnu_cxx12_Lock_policyE2ELb0ELb0EE6_M_getEv(ptr noundef nonnull align 1 dereferenceable(1) %this) #0 comdat align 2 {
entry:
  %this.addr = alloca ptr, align 8
  store ptr %this, ptr %this.addr, align 8
  %this1 = load ptr, ptr %this.addr, align 8
  %call = call noundef ptr @_ZNKSt12__shared_ptrIN5arrow8DataTypeELN9__gnu_cxx12_Lock_policyE2EE3getEv(ptr noundef nonnull align 8 dereferenceable(16) %this1) #9
  ret ptr %call
}

; Function Attrs: mustprogress uwtable
define linkonce_odr void @_ZN5arrow6Status9TypeErrorIJRA38_KcEEES0_DpOT_(ptr noalias sret(%"class.arrow::Status") align 8 %agg.result, ptr noundef nonnull align 1 dereferenceable(38) %args) #1 comdat align 2 {
entry:
  %result.ptr = alloca ptr, align 8
  %args.addr = alloca ptr, align 8
  store ptr %agg.result, ptr %result.ptr, align 8
  store ptr %args, ptr %args.addr, align 8
  %0 = load ptr, ptr %args.addr, align 8
  call void @_ZN5arrow6Status8FromArgsIJRA38_KcEEES0_NS_10StatusCodeEDpOT_(ptr sret(%"class.arrow::Status") align 8 %agg.result, i8 noundef signext 3, ptr noundef nonnull align 1 dereferenceable(38) %0)
  ret void
}

; Function Attrs: mustprogress uwtable
define linkonce_odr void @_ZN5arrow6Status7InvalidIJRA58_KcEEES0_DpOT_(ptr noalias sret(%"class.arrow::Status") align 8 %agg.result, ptr noundef nonnull align 1 dereferenceable(58) %args) #1 comdat align 2 {
entry:
  %result.ptr = alloca ptr, align 8
  %args.addr = alloca ptr, align 8
  store ptr %agg.result, ptr %result.ptr, align 8
  store ptr %args, ptr %args.addr, align 8
  %0 = load ptr, ptr %args.addr, align 8
  call void @_ZN5arrow6Status8FromArgsIJRA58_KcEEES0_NS_10StatusCodeEDpOT_(ptr sret(%"class.arrow::Status") align 8 %agg.result, i8 noundef signext 4, ptr noundef nonnull align 1 dereferenceable(58) %0)
  ret void
}

; Function Attrs: mustprogress nounwind uwtable
define linkonce_odr noundef ptr @_ZNKSt19__shared_ptr_accessIN5arrow8DataTypeELN9__gnu_cxx12_Lock_policyE2ELb0ELb0EEptEv(ptr noundef nonnull align 1 dereferenceable(1) %this) #0 comdat align 2 {
entry:
  %this.addr = alloca ptr, align 8
  store ptr %this, ptr %this.addr, align 8
  %this1 = load ptr, ptr %this.addr, align 8
  %call = call noundef ptr @_ZNKSt19__shared_ptr_accessIN5arrow8DataTypeELN9__gnu_cxx12_Lock_policyE2ELb0ELb0EE6_M_getEv(ptr noundef nonnull align 1 dereferenceable(1) %this1) #9
  ret ptr %call
}

; Function Attrs: mustprogress nounwind uwtable
define linkonce_odr noundef i32 @_ZNK5arrow8DataType2idEv(ptr noundef nonnull align 8 dereferenceable(72) %this) #0 comdat align 2 {
entry:
  %this.addr = alloca ptr, align 8
  store ptr %this, ptr %this.addr, align 8
  %this1 = load ptr, ptr %this.addr, align 8
  %id_ = getelementptr inbounds %"class.arrow::DataType", ptr %this1, i32 0, i32 2
  %0 = load i32, ptr %id_, align 8
  ret i32 %0
}

; Function Attrs: mustprogress uwtable
define void @_ZN5arrow8internal20CheckIntegersInRangeERKNS_9ArraySpanERKNS_6ScalarES6_(ptr noalias sret(%"class.arrow::Status") align 8 %agg.result, ptr noundef nonnull align 8 dereferenceable(128) %values, ptr noundef nonnull align 8 dereferenceable(41) %bound_lower, ptr noundef nonnull align 8 dereferenceable(41) %bound_upper) #1 {
entry:
  %result.ptr = alloca ptr, align 8
  %values.addr = alloca ptr, align 8
  %bound_lower.addr = alloca ptr, align 8
  %bound_upper.addr = alloca ptr, align 8
  %type_id = alloca i32, align 4
  store ptr %agg.result, ptr %result.ptr, align 8
  store ptr %values, ptr %values.addr, align 8
  store ptr %bound_lower, ptr %bound_lower.addr, align 8
  store ptr %bound_upper, ptr %bound_upper.addr, align 8
  %0 = load ptr, ptr %values.addr, align 8
  %type = getelementptr inbounds %"struct.arrow::ArraySpan", ptr %0, i32 0, i32 0
  %1 = load ptr, ptr %type, align 8
  %call = call noundef i32 @_ZNK5arrow8DataType2idEv(ptr noundef nonnull align 8 dereferenceable(72) %1)
  store i32 %call, ptr %type_id, align 4
  %2 = load ptr, ptr %bound_lower.addr, align 8
  %type1 = getelementptr inbounds %"struct.arrow::Scalar", ptr %2, i32 0, i32 2
  %call2 = call noundef ptr @_ZNKSt19__shared_ptr_accessIN5arrow8DataTypeELN9__gnu_cxx12_Lock_policyE2ELb0ELb0EEptEv(ptr noundef nonnull align 1 dereferenceable(1) %type1) #9
  %call3 = call noundef i32 @_ZNK5arrow8DataType2idEv(ptr noundef nonnull align 8 dereferenceable(72) %call2)
  %3 = load i32, ptr %type_id, align 4
  %cmp = icmp ne i32 %call3, %3
  br i1 %cmp, label %if.then, label %lor.lhs.false

lor.lhs.false:                                    ; preds = %entry
  %4 = load ptr, ptr %bound_upper.addr, align 8
  %type4 = getelementptr inbounds %"struct.arrow::Scalar", ptr %4, i32 0, i32 2
  %call5 = call noundef ptr @_ZNKSt19__shared_ptr_accessIN5arrow8DataTypeELN9__gnu_cxx12_Lock_policyE2ELb0ELb0EEptEv(ptr noundef nonnull align 1 dereferenceable(1) %type4) #9
  %call6 = call noundef i32 @_ZNK5arrow8DataType2idEv(ptr noundef nonnull align 8 dereferenceable(72) %call5)
  %5 = load i32, ptr %type_id, align 4
  %cmp7 = icmp ne i32 %call6, %5
  br i1 %cmp7, label %if.then, label %lor.lhs.false8

lor.lhs.false8:                                   ; preds = %lor.lhs.false
  %6 = load ptr, ptr %bound_lower.addr, align 8
  %is_valid = getelementptr inbounds %"struct.arrow::Scalar", ptr %6, i32 0, i32 3
  %7 = load i8, ptr %is_valid, align 8
  %tobool = trunc i8 %7 to i1
  br i1 %tobool, label %lor.lhs.false9, label %if.then

lor.lhs.false9:                                   ; preds = %lor.lhs.false8
  %8 = load ptr, ptr %bound_upper.addr, align 8
  %is_valid10 = getelementptr inbounds %"struct.arrow::Scalar", ptr %8, i32 0, i32 3
  %9 = load i8, ptr %is_valid10, align 8
  %tobool11 = trunc i8 %9 to i1
  br i1 %tobool11, label %if.end, label %if.then

if.then:                                          ; preds = %lor.lhs.false9, %lor.lhs.false8, %lor.lhs.false, %entry
  call void @_ZN5arrow6Status7InvalidIJRA58_KcEEES0_DpOT_(ptr sret(%"class.arrow::Status") align 8 %agg.result, ptr noundef nonnull align 1 dereferenceable(58) @.str.1)
  br label %return

if.end:                                           ; preds = %lor.lhs.false9
  %10 = load i32, ptr %type_id, align 4
  switch i32 %10, label %sw.default [
    i32 3, label %sw.bb
    i32 5, label %sw.bb12
    i32 7, label %sw.bb13
    i32 9, label %sw.bb14
    i32 2, label %sw.bb15
    i32 4, label %sw.bb16
    i32 6, label %sw.bb17
    i32 8, label %sw.bb18
  ]

sw.bb:                                            ; preds = %if.end
  %11 = load ptr, ptr %values.addr, align 8
  %12 = load ptr, ptr %bound_lower.addr, align 8
  %13 = load ptr, ptr %bound_upper.addr, align 8
  call void @_ZN5arrow8internal12_GLOBAL__N_124CheckIntegersInRangeImplINS_8Int8TypeEEENS_6StatusERKNS_9ArraySpanERKNS_6ScalarESA_(ptr sret(%"class.arrow::Status") align 8 %agg.result, ptr noundef nonnull align 8 dereferenceable(128) %11, ptr noundef nonnull align 8 dereferenceable(41) %12, ptr noundef nonnull align 8 dereferenceable(41) %13)
  br label %return

sw.bb12:                                          ; preds = %if.end
  %14 = load ptr, ptr %values.addr, align 8
  %15 = load ptr, ptr %bound_lower.addr, align 8
  %16 = load ptr, ptr %bound_upper.addr, align 8
  call void @_ZN5arrow8internal12_GLOBAL__N_124CheckIntegersInRangeImplINS_9Int16TypeEEENS_6StatusERKNS_9ArraySpanERKNS_6ScalarESA_(ptr sret(%"class.arrow::Status") align 8 %agg.result, ptr noundef nonnull align 8 dereferenceable(128) %14, ptr noundef nonnull align 8 dereferenceable(41) %15, ptr noundef nonnull align 8 dereferenceable(41) %16)
  br label %return

sw.bb13:                                          ; preds = %if.end
  %17 = load ptr, ptr %values.addr, align 8
  %18 = load ptr, ptr %bound_lower.addr, align 8
  %19 = load ptr, ptr %bound_upper.addr, align 8
  call void @_ZN5arrow8internal12_GLOBAL__N_124CheckIntegersInRangeImplINS_9Int32TypeEEENS_6StatusERKNS_9ArraySpanERKNS_6ScalarESA_(ptr sret(%"class.arrow::Status") align 8 %agg.result, ptr noundef nonnull align 8 dereferenceable(128) %17, ptr noundef nonnull align 8 dereferenceable(41) %18, ptr noundef nonnull align 8 dereferenceable(41) %19)
  br label %return

sw.bb14:                                          ; preds = %if.end
  %20 = load ptr, ptr %values.addr, align 8
  %21 = load ptr, ptr %bound_lower.addr, align 8
  %22 = load ptr, ptr %bound_upper.addr, align 8
  call void @_ZN5arrow8internal12_GLOBAL__N_124CheckIntegersInRangeImplINS_9Int64TypeEEENS_6StatusERKNS_9ArraySpanERKNS_6ScalarESA_(ptr sret(%"class.arrow::Status") align 8 %agg.result, ptr noundef nonnull align 8 dereferenceable(128) %20, ptr noundef nonnull align 8 dereferenceable(41) %21, ptr noundef nonnull align 8 dereferenceable(41) %22)
  br label %return

sw.bb15:                                          ; preds = %if.end
  %23 = load ptr, ptr %values.addr, align 8
  %24 = load ptr, ptr %bound_lower.addr, align 8
  %25 = load ptr, ptr %bound_upper.addr, align 8
  call void @_ZN5arrow8internal12_GLOBAL__N_124CheckIntegersInRangeImplINS_9UInt8TypeEEENS_6StatusERKNS_9ArraySpanERKNS_6ScalarESA_(ptr sret(%"class.arrow::Status") align 8 %agg.result, ptr noundef nonnull align 8 dereferenceable(128) %23, ptr noundef nonnull align 8 dereferenceable(41) %24, ptr noundef nonnull align 8 dereferenceable(41) %25)
  br label %return

sw.bb16:                                          ; preds = %if.end
  %26 = load ptr, ptr %values.addr, align 8
  %27 = load ptr, ptr %bound_lower.addr, align 8
  %28 = load ptr, ptr %bound_upper.addr, align 8
  call void @_ZN5arrow8internal12_GLOBAL__N_124CheckIntegersInRangeImplINS_10UInt16TypeEEENS_6StatusERKNS_9ArraySpanERKNS_6ScalarESA_(ptr sret(%"class.arrow::Status") align 8 %agg.result, ptr noundef nonnull align 8 dereferenceable(128) %26, ptr noundef nonnull align 8 dereferenceable(41) %27, ptr noundef nonnull align 8 dereferenceable(41) %28)
  br label %return

sw.bb17:                                          ; preds = %if.end
  %29 = load ptr, ptr %values.addr, align 8
  %30 = load ptr, ptr %bound_lower.addr, align 8
  %31 = load ptr, ptr %bound_upper.addr, align 8
  call void @_ZN5arrow8internal12_GLOBAL__N_124CheckIntegersInRangeImplINS_10UInt32TypeEEENS_6StatusERKNS_9ArraySpanERKNS_6ScalarESA_(ptr sret(%"class.arrow::Status") align 8 %agg.result, ptr noundef nonnull align 8 dereferenceable(128) %29, ptr noundef nonnull align 8 dereferenceable(41) %30, ptr noundef nonnull align 8 dereferenceable(41) %31)
  br label %return

sw.bb18:                                          ; preds = %if.end
  %32 = load ptr, ptr %values.addr, align 8
  %33 = load ptr, ptr %bound_lower.addr, align 8
  %34 = load ptr, ptr %bound_upper.addr, align 8
  call void @_ZN5arrow8internal12_GLOBAL__N_124CheckIntegersInRangeImplINS_10UInt64TypeEEENS_6StatusERKNS_9ArraySpanERKNS_6ScalarESA_(ptr sret(%"class.arrow::Status") align 8 %agg.result, ptr noundef nonnull align 8 dereferenceable(128) %32, ptr noundef nonnull align 8 dereferenceable(41) %33, ptr noundef nonnull align 8 dereferenceable(41) %34)
  br label %return

sw.default:                                       ; preds = %if.end
  call void @_ZN5arrow6Status9TypeErrorIJRA38_KcEEES0_DpOT_(ptr sret(%"class.arrow::Status") align 8 %agg.result, ptr noundef nonnull align 1 dereferenceable(38) @.str)
  br label %return

return:                                           ; preds = %sw.default, %sw.bb18, %sw.bb17, %sw.bb16, %sw.bb15, %sw.bb14, %sw.bb13, %sw.bb12, %sw.bb, %if.then
  ret void
}