; Function Attrs: mustprogress uwtable
define void @_ZN5arrow8internal20CheckIntegersInRangeERKNS_9ArraySpanERKNS_6ScalarES6_(ptr noalias sret(%"class.arrow::Status") align 8 %agg.result, ptr noundef nonnull align 8 dereferenceable(128) %values, ptr nocapture noundef nonnull readonly align 8 dereferenceable(41) %bound_lower, ptr nocapture noundef nonnull readonly align 8 dereferenceable(41) %bound_upper) local_unnamed_addr #6 {
entry:
  %0 = load ptr, ptr %values, align 8
  %id_.i = getelementptr inbounds i8, ptr %0, i64 40
  %1 = load i32, ptr %id_.i, align 8
  %type1 = getelementptr inbounds i8, ptr %bound_lower, i64 24
  %2 = load ptr, ptr %type1, align 8
  %id_.i43 = getelementptr inbounds i8, ptr %2, i64 40
  %3 = load i32, ptr %id_.i43, align 8
  %cmp.not = icmp eq i32 %3, %1
  br i1 %cmp.not, label %lor.lhs.false, label %if.then

lor.lhs.false:                                    ; preds = %entry
  %type4 = getelementptr inbounds i8, ptr %bound_upper, i64 24
  %4 = load ptr, ptr %type4, align 8
  %id_.i44 = getelementptr inbounds i8, ptr %4, i64 40
  %5 = load i32, ptr %id_.i44, align 8
  %cmp7.not = icmp eq i32 %5, %1
  br i1 %cmp7.not, label %lor.lhs.false8, label %if.then

lor.lhs.false8:                                   ; preds = %lor.lhs.false
  %is_valid = getelementptr inbounds i8, ptr %bound_lower, i64 40
  %6 = load i8, ptr %is_valid, align 8
  %7 = and i8 %6, 1
  %tobool.not = icmp eq i8 %7, 0
  br i1 %tobool.not, label %if.then, label %lor.lhs.false9

lor.lhs.false9:                                   ; preds = %lor.lhs.false8
  %is_valid10 = getelementptr inbounds i8, ptr %bound_upper, i64 40
  %8 = load i8, ptr %is_valid10, align 8
  %9 = and i8 %8, 1
  %tobool11.not = icmp eq i8 %9, 0
  br i1 %tobool11.not, label %if.then, label %if.end

if.then:                                          ; preds = %lor.lhs.false9, %lor.lhs.false8, %lor.lhs.false, %entry
  tail call void @_ZN5arrow6Status8FromArgsIJRA58_KcEEES0_NS_10StatusCodeEDpOT_(ptr sret(%"class.arrow::Status") align 8 %agg.result, i8 noundef signext 4, ptr noundef nonnull align 1 dereferenceable(58) @.str.1)
  br label %return

if.end:                                           ; preds = %lor.lhs.false9
  switch i32 %1, label %sw.default [
    i32 3, label %sw.bb
    i32 5, label %sw.bb12
    i32 7, label %sw.bb13
    i32 9, label %sw.bb14
    i32 2, label %sw.bb15
    i32 4, label %sw.bb16
    i32 6, label %sw.bb17
    i32 8, label %sw.bb18
  ]

sw.bb:                                            ; preds = %if.end
  %10 = getelementptr inbounds i8, ptr %bound_lower, i64 41
  %bound_lower.val = load i8, ptr %10, align 1
  %11 = getelementptr inbounds i8, ptr %bound_upper, i64 41
  %bound_upper.val = load i8, ptr %11, align 1
  tail call fastcc void @_ZN5arrow8internal12_GLOBAL__N_124CheckIntegersInRangeImplINS_8Int8TypeEEENS_6StatusERKNS_9ArraySpanERKNS_6ScalarESA_(ptr noalias align 8 %agg.result, ptr noundef nonnull align 8 dereferenceable(128) %values, i8 %bound_lower.val, i8 %bound_upper.val)
  br label %return

sw.bb12:                                          ; preds = %if.end
  %12 = getelementptr i8, ptr %bound_lower, i64 42
  %bound_lower.val29 = load i16, ptr %12, align 2
  %13 = getelementptr i8, ptr %bound_upper, i64 42
  %bound_upper.val30 = load i16, ptr %13, align 2
  tail call fastcc void @_ZN5arrow8internal12_GLOBAL__N_124CheckIntegersInRangeImplINS_9Int16TypeEEENS_6StatusERKNS_9ArraySpanERKNS_6ScalarESA_(ptr noalias align 8 %agg.result, ptr noundef nonnull align 8 dereferenceable(128) %values, i16 %bound_lower.val29, i16 %bound_upper.val30)
  br label %return

sw.bb13:                                          ; preds = %if.end
  %14 = getelementptr i8, ptr %bound_lower, i64 44
  %bound_lower.val31 = load i32, ptr %14, align 4
  %15 = getelementptr i8, ptr %bound_upper, i64 44
  %bound_upper.val32 = load i32, ptr %15, align 4
  tail call fastcc void @_ZN5arrow8internal12_GLOBAL__N_124CheckIntegersInRangeImplINS_9Int32TypeEEENS_6StatusERKNS_9ArraySpanERKNS_6ScalarESA_(ptr noalias align 8 %agg.result, ptr noundef nonnull align 8 dereferenceable(128) %values, i32 %bound_lower.val31, i32 %bound_upper.val32)
  br label %return

sw.bb14:                                          ; preds = %if.end
  %16 = getelementptr i8, ptr %bound_lower, i64 48
  %bound_lower.val33 = load i64, ptr %16, align 8
  %17 = getelementptr i8, ptr %bound_upper, i64 48
  %bound_upper.val34 = load i64, ptr %17, align 8
  tail call fastcc void @_ZN5arrow8internal12_GLOBAL__N_124CheckIntegersInRangeImplINS_9Int64TypeEEENS_6StatusERKNS_9ArraySpanERKNS_6ScalarESA_(ptr noalias align 8 %agg.result, ptr noundef nonnull align 8 dereferenceable(128) %values, i64 %bound_lower.val33, i64 %bound_upper.val34)
  br label %return

sw.bb15:                                          ; preds = %if.end
  %18 = getelementptr inbounds i8, ptr %bound_lower, i64 41
  %bound_lower.val35 = load i8, ptr %18, align 1
  %19 = getelementptr inbounds i8, ptr %bound_upper, i64 41
  %bound_upper.val36 = load i8, ptr %19, align 1
  tail call fastcc void @_ZN5arrow8internal12_GLOBAL__N_124CheckIntegersInRangeImplINS_9UInt8TypeEEENS_6StatusERKNS_9ArraySpanERKNS_6ScalarESA_(ptr noalias align 8 %agg.result, ptr noundef nonnull align 8 dereferenceable(128) %values, i8 %bound_lower.val35, i8 %bound_upper.val36)
  br label %return

sw.bb16:                                          ; preds = %if.end
  %20 = getelementptr i8, ptr %bound_lower, i64 42
  %bound_lower.val37 = load i16, ptr %20, align 2
  %21 = getelementptr i8, ptr %bound_upper, i64 42
  %bound_upper.val38 = load i16, ptr %21, align 2
  tail call fastcc void @_ZN5arrow8internal12_GLOBAL__N_124CheckIntegersInRangeImplINS_10UInt16TypeEEENS_6StatusERKNS_9ArraySpanERKNS_6ScalarESA_(ptr noalias align 8 %agg.result, ptr noundef nonnull align 8 dereferenceable(128) %values, i16 %bound_lower.val37, i16 %bound_upper.val38)
  br label %return

sw.bb17:                                          ; preds = %if.end
  %22 = getelementptr i8, ptr %bound_lower, i64 44
  %bound_lower.val39 = load i32, ptr %22, align 4
  %23 = getelementptr i8, ptr %bound_upper, i64 44
  %bound_upper.val40 = load i32, ptr %23, align 4
  tail call fastcc void @_ZN5arrow8internal12_GLOBAL__N_124CheckIntegersInRangeImplINS_10UInt32TypeEEENS_6StatusERKNS_9ArraySpanERKNS_6ScalarESA_(ptr noalias align 8 %agg.result, ptr noundef nonnull align 8 dereferenceable(128) %values, i32 %bound_lower.val39, i32 %bound_upper.val40)
  br label %return

sw.bb18:                                          ; preds = %if.end
  %24 = getelementptr i8, ptr %bound_lower, i64 48
  %bound_lower.val41 = load i64, ptr %24, align 8
  %25 = getelementptr i8, ptr %bound_upper, i64 48
  %bound_upper.val42 = load i64, ptr %25, align 8
  tail call fastcc void @_ZN5arrow8internal12_GLOBAL__N_124CheckIntegersInRangeImplINS_10UInt64TypeEEENS_6StatusERKNS_9ArraySpanERKNS_6ScalarESA_(ptr noalias align 8 %agg.result, ptr noundef nonnull align 8 dereferenceable(128) %values, i64 %bound_lower.val41, i64 %bound_upper.val42)
  br label %return

sw.default:                                       ; preds = %if.end
  tail call void @_ZN5arrow6Status8FromArgsIJRA38_KcEEES0_NS_10StatusCodeEDpOT_(ptr sret(%"class.arrow::Status") align 8 %agg.result, i8 noundef signext 3, ptr noundef nonnull align 1 dereferenceable(38) @.str)
  br label %return

return:                                           ; preds = %sw.default, %sw.bb18, %sw.bb17, %sw.bb16, %sw.bb15, %sw.bb14, %sw.bb13, %sw.bb12, %sw.bb, %if.then
  ret void
}